; ModuleID = '12/196.c'
source_filename = "12/196.c"
target datalayout = "e-m:e-p270:32:32-p271:32:32-p272:64:64-i64:64-f80:128-n8:16:32:64-S128"
target triple = "x86_64-pc-linux-gnu"

@.str = private unnamed_addr constant [3 x i8] c"%d\00", align 1
@.str.1 = private unnamed_addr constant [4 x i8] c"%d\0A\00", align 1

; Function Attrs: noinline nounwind uwtable
define dso_local void @main() #0 {
  %1 = alloca [100 x [16 x i32]], align 16
  %2 = alloca [100 x i32], align 16
  %3 = alloca i32, align 4
  %4 = alloca i32, align 4
  %5 = alloca i32, align 4
  %6 = alloca i32, align 4
  %7 = alloca i32, align 4
  %8 = alloca i32, align 4
  %9 = alloca i32, align 4
  %10 = bitcast [100 x i32]* %2 to i8*
  call void @llvm.memset.p0i8.i64(i8* align 16 %10, i8 0, i64 400, i1 false)
  store i32 -1, i32* %9, align 4
  store i32 0, i32* %3, align 4
  br label %11

11:                                               ; preds = %105, %0
  %12 = load i32, i32* %3, align 4
  %13 = icmp slt i32 %12, 100
  br i1 %13, label %14, label %108

14:                                               ; preds = %11
  store i32 -1, i32* %8, align 4
  store i32 0, i32* %4, align 4
  br label %15

15:                                               ; preds = %47, %14
  %16 = load i32, i32* %4, align 4
  %17 = icmp slt i32 %16, 16
  br i1 %17, label %18, label %50

18:                                               ; preds = %15
  %19 = load i32, i32* %3, align 4
  %20 = sext i32 %19 to i64
  %21 = getelementptr inbounds [100 x [16 x i32]], [100 x [16 x i32]]* %1, i64 0, i64 %20
  %22 = load i32, i32* %4, align 4
  %23 = sext i32 %22 to i64
  %24 = getelementptr inbounds [16 x i32], [16 x i32]* %21, i64 0, i64 %23
  %25 = call i32 (i8*, ...) @__isoc99_scanf(i8* getelementptr inbounds ([3 x i8], [3 x i8]* @.str, i64 0, i64 0), i32* %24)
  %26 = load i32, i32* %3, align 4
  %27 = sext i32 %26 to i64
  %28 = getelementptr inbounds [100 x [16 x i32]], [100 x [16 x i32]]* %1, i64 0, i64 %27
  %29 = load i32, i32* %4, align 4
  %30 = sext i32 %29 to i64
  %31 = getelementptr inbounds [16 x i32], [16 x i32]* %28, i64 0, i64 %30
  %32 = load i32, i32* %31, align 4
  %33 = icmp eq i32 %32, 0
  br i1 %33, label %43, label %34

34:                                               ; preds = %18
  %35 = load i32, i32* %3, align 4
  %36 = sext i32 %35 to i64
  %37 = getelementptr inbounds [100 x [16 x i32]], [100 x [16 x i32]]* %1, i64 0, i64 %36
  %38 = load i32, i32* %4, align 4
  %39 = sext i32 %38 to i64
  %40 = getelementptr inbounds [16 x i32], [16 x i32]* %37, i64 0, i64 %39
  %41 = load i32, i32* %40, align 4
  %42 = icmp eq i32 %41, -1
  br i1 %42, label %43, label %44

43:                                               ; preds = %34, %18
  br label %50

44:                                               ; preds = %34
  %45 = load i32, i32* %8, align 4
  %46 = add nsw i32 %45, 1
  store i32 %46, i32* %8, align 4
  br label %47

47:                                               ; preds = %44
  %48 = load i32, i32* %4, align 4
  %49 = add nsw i32 %48, 1
  store i32 %49, i32* %4, align 4
  br label %15

50:                                               ; preds = %43, %15
  %51 = load i32, i32* %3, align 4
  %52 = sext i32 %51 to i64
  %53 = getelementptr inbounds [100 x [16 x i32]], [100 x [16 x i32]]* %1, i64 0, i64 %52
  %54 = load i32, i32* %4, align 4
  %55 = sext i32 %54 to i64
  %56 = getelementptr inbounds [16 x i32], [16 x i32]* %53, i64 0, i64 %55
  %57 = load i32, i32* %56, align 4
  %58 = icmp eq i32 %57, -1
  br i1 %58, label %59, label %60

59:                                               ; preds = %50
  br label %108

60:                                               ; preds = %50
  store i32 0, i32* %5, align 4
  br label %61

61:                                               ; preds = %99, %60
  %62 = load i32, i32* %5, align 4
  %63 = load i32, i32* %8, align 4
  %64 = icmp sle i32 %62, %63
  br i1 %64, label %65, label %102

65:                                               ; preds = %61
  store i32 0, i32* %6, align 4
  br label %66

66:                                               ; preds = %95, %65
  %67 = load i32, i32* %6, align 4
  %68 = load i32, i32* %8, align 4
  %69 = icmp sle i32 %67, %68
  br i1 %69, label %70, label %98

70:                                               ; preds = %66
  %71 = load i32, i32* %3, align 4
  %72 = sext i32 %71 to i64
  %73 = getelementptr inbounds [100 x [16 x i32]], [100 x [16 x i32]]* %1, i64 0, i64 %72
  %74 = load i32, i32* %5, align 4
  %75 = sext i32 %74 to i64
  %76 = getelementptr inbounds [16 x i32], [16 x i32]* %73, i64 0, i64 %75
  %77 = load i32, i32* %76, align 4
  %78 = load i32, i32* %3, align 4
  %79 = sext i32 %78 to i64
  %80 = getelementptr inbounds [100 x [16 x i32]], [100 x [16 x i32]]* %1, i64 0, i64 %79
  %81 = load i32, i32* %6, align 4
  %82 = sext i32 %81 to i64
  %83 = getelementptr inbounds [16 x i32], [16 x i32]* %80, i64 0, i64 %82
  %84 = load i32, i32* %83, align 4
  %85 = mul nsw i32 2, %84
  %86 = icmp eq i32 %77, %85
  br i1 %86, label %87, label %93

87:                                               ; preds = %70
  %88 = load i32, i32* %3, align 4
  %89 = sext i32 %88 to i64
  %90 = getelementptr inbounds [100 x i32], [100 x i32]* %2, i64 0, i64 %89
  %91 = load i32, i32* %90, align 4
  %92 = add nsw i32 %91, 1
  store i32 %92, i32* %90, align 4
  br label %94

93:                                               ; preds = %70
  br label %95

94:                                               ; preds = %87
  br label %95

95:                                               ; preds = %94, %93
  %96 = load i32, i32* %6, align 4
  %97 = add nsw i32 %96, 1
  store i32 %97, i32* %6, align 4
  br label %66

98:                                               ; preds = %66
  br label %99

99:                                               ; preds = %98
  %100 = load i32, i32* %5, align 4
  %101 = add nsw i32 %100, 1
  store i32 %101, i32* %5, align 4
  br label %61

102:                                              ; preds = %61
  %103 = load i32, i32* %9, align 4
  %104 = add nsw i32 %103, 1
  store i32 %104, i32* %9, align 4
  br label %105

105:                                              ; preds = %102
  %106 = load i32, i32* %3, align 4
  %107 = add nsw i32 %106, 1
  store i32 %107, i32* %3, align 4
  br label %11

108:                                              ; preds = %59, %11
  store i32 0, i32* %7, align 4
  br label %109

109:                                              ; preds = %119, %108
  %110 = load i32, i32* %7, align 4
  %111 = load i32, i32* %9, align 4
  %112 = icmp sle i32 %110, %111
  br i1 %112, label %113, label %122

113:                                              ; preds = %109
  %114 = load i32, i32* %7, align 4
  %115 = sext i32 %114 to i64
  %116 = getelementptr inbounds [100 x i32], [100 x i32]* %2, i64 0, i64 %115
  %117 = load i32, i32* %116, align 4
  %118 = call i32 (i8*, ...) @printf(i8* getelementptr inbounds ([4 x i8], [4 x i8]* @.str.1, i64 0, i64 0), i32 %117)
  br label %119

119:                                              ; preds = %113
  %120 = load i32, i32* %7, align 4
  %121 = add nsw i32 %120, 1
  store i32 %121, i32* %7, align 4
  br label %109

122:                                              ; preds = %109
  ret void
}

; Function Attrs: argmemonly nounwind willreturn
declare void @llvm.memset.p0i8.i64(i8* nocapture writeonly, i8, i64, i1 immarg) #1

declare dso_local i32 @__isoc99_scanf(i8*, ...) #2

declare dso_local i32 @printf(i8*, ...) #2


!llvm.module.flags = !{!0}
!llvm.ident = !{!1}

!0 = !{i32 1, !"wchar_size", i32 4}
!1 = !{!"clang version 10.0.0-4ubuntu1 "}
